; Function Attrs: mustprogress uwtable
define internal fastcc noundef zeroext i1 @_ZN8facebook5velox4exec12_GLOBAL__N_115hasConditionalsEPNS1_4ExprE(ptr noundef %expr) unnamed_addr #3 {
entry:
  %vtable = load ptr, ptr %expr, align 8
  %vfn = getelementptr inbounds i8, ptr %vtable, i64 40
  %0 = load ptr, ptr %vfn, align 8
  %call = tail call noundef zeroext i1 %0(ptr noundef nonnull align 8 dereferenceable(442) %expr)
  br i1 %call, label %return, label %if.end

if.end:                                           ; preds = %entry
  %inputs_.i = getelementptr inbounds i8, ptr %expr, i64 24
  %1 = load ptr, ptr %inputs_.i, align 8
  %_M_finish.i = getelementptr inbounds i8, ptr %expr, i64 32
  %2 = load ptr, ptr %_M_finish.i, align 8
  %cmp.i.not5 = icmp eq ptr %1, %2
  br i1 %cmp.i.not5, label %return, label %for.body

for.body:                                         ; preds = %if.end, %for.body
  %__begin3.sroa.0.06 = phi ptr [ %incdec.ptr.i, %for.body ], [ %1, %if.end ]
  %3 = load ptr, ptr %__begin3.sroa.0.06, align 8
  %call8 = tail call fastcc noundef zeroext i1 @_ZN8facebook5velox4exec12_GLOBAL__N_115hasConditionalsEPNS1_4ExprE(ptr noundef %3)
  %incdec.ptr.i = getelementptr inbounds i8, ptr %__begin3.sroa.0.06, i64 16
  %cmp.i.not = icmp eq ptr %incdec.ptr.i, %2
  %or.cond = select i1 %call8, i1 true, i1 %cmp.i.not
  br i1 %or.cond, label %return, label %for.body

return:                                           ; preds = %for.body, %if.end, %entry
  %retval.0 = phi i1 [ true, %entry ], [ false, %if.end ], [ %call8, %for.body ]
  ret i1 %retval.0
}